; Function Attrs: mustprogress uwtable
define void @_ZNK8facebook5velox9aggregate8ValueSet4freeERKNS0_10StringViewE(ptr nocapture noundef nonnull readonly align 8 dereferenceable(8) %this, ptr nocapture noundef nonnull readonly align 8 dereferenceable(16) %value) local_unnamed_addr #0 align 2 {
entry:
  %0 = load i32, ptr %value, align 8
  %cmp.i.i = icmp ult i32 %0, 13
  br i1 %cmp.i.i, label %if.end, label %if.then

if.then:                                          ; preds = %entry
  %value_.i = getelementptr inbounds i8, ptr %value, i64 8
  %1 = load ptr, ptr %value_.i, align 8
  %add.ptr.i = getelementptr inbounds i8, ptr %1, i64 -4
  %2 = load ptr, ptr %this, align 8
  tail call void @_ZN8facebook5velox19HashStringAllocator4freeEPNS1_6HeaderE(ptr noundef nonnull align 8 dereferenceable(37416) %2, ptr noundef nonnull %add.ptr.i)
  br label %if.end

if.end:                                           ; preds = %if.then, %entry
  ret void
}